; Function Attrs: mustprogress uwtable
define noundef zeroext i1 @_Z7CmpNamePKwS0_i(ptr noundef %0, ptr noundef %1, i32 noundef %2) local_unnamed_addr #0 {
  %4 = alloca [2048 x i32], align 16
  %5 = alloca [2048 x i32], align 16
  %6 = icmp slt i32 %2, 0
  %7 = and i32 %2, 65535
  %.not = icmp eq i32 %7, 0
  br i1 %.not, label %44, label %8

8:                                                ; preds = %3
  %9 = tail call i64 @wcslen(ptr noundef %0) #5
  %10 = add nsw i32 %7, -5
  %or.cond4 = icmp ult i32 %10, -3
  br i1 %or.cond4, label %11, label %.thread

11:                                               ; preds = %8
  %12 = tail call noundef i32 @wcsncmp(ptr noundef readonly %0, ptr noundef readonly %1, i64 noundef %9) #5
  %13 = icmp eq i32 %12, 0
  br i1 %13, label %14, label %17

14:                                               ; preds = %11
  %15 = getelementptr inbounds nuw i32, ptr %1, i64 %9
  %16 = load i32, ptr %15, align 4, !tbaa !3
  switch i32 %16, label %17 [
    i32 92, label %.thread75
    i32 47, label %.thread75
    i32 0, label %.thread75
  ]

17:                                               ; preds = %14, %11
  %18 = icmp eq i32 %7, 1
  br i1 %18, label %.thread75, label %.thread

.thread:                                          ; preds = %8, %17
  call void @llvm.lifetime.start.p0(i64 8192, ptr nonnull %4) #6
  call void @llvm.lifetime.start.p0(i64 8192, ptr nonnull %5) #6
  call void @_Z11GetFilePathPKwPwm(ptr noundef %0, ptr noundef nonnull %4, i64 noundef 2048)
  call void @_Z11GetFilePathPKwPwm(ptr noundef %1, ptr noundef nonnull %5, i64 noundef 2048)
  %trunc = trunc i32 %2 to i16
  switch i16 %trunc, label %26 [
    i16 4, label %19
    i16 2, label %19
    i16 3, label %.thread79.sink.split
  ]

19:                                               ; preds = %.thread, %.thread
  br i1 %6, label %20, label %22

20:                                               ; preds = %19
  %21 = call i32 @wcscmp(ptr noundef nonnull %4, ptr noundef nonnull %5) #5
  br label %_ZL10mwcsicompcPKwS0_b.exit

22:                                               ; preds = %19
  %23 = call noundef i32 @_Z9wcsicompcPKwS0_(ptr noundef nonnull %4, ptr noundef nonnull %5)
  br label %_ZL10mwcsicompcPKwS0_b.exit

_ZL10mwcsicompcPKwS0_b.exit:                      ; preds = %20, %22
  %.0.i = phi i32 [ %21, %20 ], [ %23, %22 ]
  %.not65 = icmp eq i32 %.0.i, 0
  br i1 %.not65, label %24, label %.thread79

24:                                               ; preds = %_ZL10mwcsicompcPKwS0_b.exit
  %25 = icmp eq i32 %7, 3
  br i1 %25, label %.thread79.sink.split, label %.thread73

26:                                               ; preds = %.thread
  %27 = icmp eq i32 %7, 5
  %or.cond12 = icmp ult i32 %10, 2
  br i1 %or.cond12, label %28, label %.thread73

28:                                               ; preds = %26
  %29 = call noundef zeroext i1 @_Z10IsWildcardPKw(ptr noundef nonnull %4)
  br i1 %29, label %.thread79.sink.split, label %30

30:                                               ; preds = %28
  br i1 %27, label %33, label %31

31:                                               ; preds = %30
  %32 = call noundef zeroext i1 @_Z10IsWildcardPKw(ptr noundef %0)
  br i1 %32, label %33, label %38

33:                                               ; preds = %31, %30
  %34 = load i32, ptr %4, align 16, !tbaa !3
  %.not67 = icmp eq i32 %34, 0
  br i1 %.not67, label %.thread73, label %35

35:                                               ; preds = %33
  %36 = call i64 @wcslen(ptr noundef nonnull %4) #5
  %37 = call noundef i32 @wcsncmp(ptr noundef nonnull readonly %4, ptr noundef nonnull readonly %5, i64 noundef %36) #5
  %.not68 = icmp eq i32 %37, 0
  br i1 %.not68, label %.thread73, label %.thread79

38:                                               ; preds = %31
  br i1 %6, label %39, label %41

39:                                               ; preds = %38
  %40 = call i32 @wcscmp(ptr noundef nonnull %4, ptr noundef nonnull %5) #5
  br label %_ZL10mwcsicompcPKwS0_b.exit70

41:                                               ; preds = %38
  %42 = call noundef i32 @_Z9wcsicompcPKwS0_(ptr noundef nonnull %4, ptr noundef nonnull %5)
  br label %_ZL10mwcsicompcPKwS0_b.exit70

_ZL10mwcsicompcPKwS0_b.exit70:                    ; preds = %39, %41
  %.0.i69 = phi i32 [ %40, %39 ], [ %42, %41 ]
  %.not66 = icmp eq i32 %.0.i69, 0
  br i1 %.not66, label %.thread73, label %.thread79

.thread79.sink.split:                             ; preds = %28, %24, %.thread
  %43 = call fastcc noundef zeroext i1 @_ZL5matchPKwS0_b(ptr noundef %0, ptr noundef %1, i1 noundef zeroext %6)
  br label %.thread79

.thread79:                                        ; preds = %.thread79.sink.split, %_ZL10mwcsicompcPKwS0_b.exit, %35, %_ZL10mwcsicompcPKwS0_b.exit70
  %.3.ph = phi i1 [ false, %_ZL10mwcsicompcPKwS0_b.exit70 ], [ false, %35 ], [ false, %_ZL10mwcsicompcPKwS0_b.exit ], [ %43, %.thread79.sink.split ]
  call void @llvm.lifetime.end.p0(i64 8192, ptr nonnull %5) #6
  call void @llvm.lifetime.end.p0(i64 8192, ptr nonnull %4) #6
  br label %.thread75

.thread73:                                        ; preds = %24, %26, %35, %33, %_ZL10mwcsicompcPKwS0_b.exit70
  call void @llvm.lifetime.end.p0(i64 8192, ptr nonnull %5) #6
  call void @llvm.lifetime.end.p0(i64 8192, ptr nonnull %4) #6
  br label %44

44:                                               ; preds = %.thread73, %3
  %45 = call noundef ptr @_Z11PointToNamePKw(ptr noundef %0)
  %46 = call noundef ptr @_Z11PointToNamePKw(ptr noundef %1)
  %47 = icmp eq i32 %7, 2
  br i1 %47, label %48, label %54

48:                                               ; preds = %44
  br i1 %6, label %49, label %51

49:                                               ; preds = %48
  %50 = call i32 @wcscmp(ptr noundef %45, ptr noundef %46) #5
  br label %_ZL10mwcsicompcPKwS0_b.exit72

51:                                               ; preds = %48
  %52 = call noundef i32 @_Z9wcsicompcPKwS0_(ptr noundef %45, ptr noundef %46)
  br label %_ZL10mwcsicompcPKwS0_b.exit72

_ZL10mwcsicompcPKwS0_b.exit72:                    ; preds = %49, %51
  %.0.i71 = phi i32 [ %50, %49 ], [ %52, %51 ]
  %53 = icmp eq i32 %.0.i71, 0
  br label %.thread75

54:                                               ; preds = %44
  %55 = call fastcc noundef zeroext i1 @_ZL5matchPKwS0_b(ptr noundef %45, ptr noundef %46, i1 noundef zeroext %6)
  br label %.thread75

.thread75:                                        ; preds = %17, %14, %14, %14, %.thread79, %_ZL10mwcsicompcPKwS0_b.exit72, %54
  %.4 = phi i1 [ %53, %_ZL10mwcsicompcPKwS0_b.exit72 ], [ %55, %54 ], [ %.3.ph, %.thread79 ], [ true, %14 ], [ true, %14 ], [ false, %17 ], [ true, %14 ]
  ret i1 %.4
}